target datalayout = "e-m:e-p270:32:32-p271:32:32-p272:64:64-i64:64-i128:128-f80:128-n8:16:32:64-S128"
target triple = "x86_64-pc-linux-gnu"

%struct._packet_info = type { ptr, ptr, i32, i32, %struct.nstime_t, %struct.nstime_t, %struct.nstime_t, i8, ptr, ptr, ptr, ptr, %struct._address, %struct._address, %struct._address, %struct._address, %struct._address, %struct._address, i32, ptr, i8, [3 x i8], %struct.anon, i32, i32, i32, i32, ptr, i8, ptr, ptr, i16, i16, i32, i32, i16, i32, i32, ptr, ptr, ptr, i8, i8, i16, i16, i16, i32, i16, i16, ptr, ptr, ptr, ptr, ptr, i32, i32 }
%struct.nstime_t = type { i64, i32 }
%struct._address = type { i32, i32, ptr, ptr }
%struct.anon = type { i8, [3 x i8] }
%struct.rlc_lte_info = type { i8, i8, i8, i8, i16, i16, i16, i16, i8, i32 }

@.str.69 = private unnamed_addr constant [8 x i8] c"rlc-lte\00", align 1
@.str.172 = private unnamed_addr constant [2 x i8] c" \00", align 1
@.str.181 = private unnamed_addr constant [4 x i8] c"SRB\00", align 1
@.str.182 = private unnamed_addr constant [4 x i8] c"DRB\00", align 1
@lte_rlc_pseudo_hdr.proto_rlc_lte = internal global i32 0, align 4
@.str.185 = private unnamed_addr constant [3 x i8] c"TM\00", align 1
@.str.186 = private unnamed_addr constant [3 x i8] c"UM\00", align 1
@.str.187 = private unnamed_addr constant [3 x i8] c"AM\00", align 1
@.str.188 = private unnamed_addr constant [3 x i8] c"NA\00", align 1
@.str.189 = private unnamed_addr constant [6 x i8] c"SN_5b\00", align 1
@.str.190 = private unnamed_addr constant [7 x i8] c"SN_10b\00", align 1

; Function Attrs: null_pointer_is_valid sspstrong uwtable
define internal zeroext i1 @lte_rlc_pseudo_hdr(ptr noundef %0, ptr noundef %1, i16 noundef zeroext %2, i32 noundef %3) #0 {
  %5 = alloca i1, align 1
  %6 = alloca ptr, align 8
  %7 = alloca ptr, align 8
  %8 = alloca i16, align 2
  %9 = alloca i32, align 4
  %10 = alloca ptr, align 8
  %11 = alloca ptr, align 8
  %12 = alloca [30 x i8], align 16
  %13 = alloca i32, align 4
  store ptr %0, ptr %6, align 8
  store ptr %1, ptr %7, align 8
  store i16 %2, ptr %8, align 2
  store i32 %3, ptr %9, align 4
  call void @llvm.lifetime.start.p0(i64 8, ptr %10) #9
  call void @llvm.lifetime.start.p0(i64 8, ptr %11) #9
  call void @llvm.lifetime.start.p0(i64 30, ptr %12) #9
  %14 = load i32, ptr @lte_rlc_pseudo_hdr.proto_rlc_lte, align 4
  %15 = icmp eq i32 %14, 0
  br i1 %15, label %16, label %18

16:                                               ; preds = %4
  %17 = call i32 @proto_get_id_by_filter_name(ptr noundef @.str.69)
  store i32 %17, ptr @lte_rlc_pseudo_hdr.proto_rlc_lte, align 4
  br label %18

18:                                               ; preds = %16, %4
  %19 = getelementptr inbounds [30 x i8], ptr %12, i64 0, i64 0
  %20 = load ptr, ptr %6, align 8
  %21 = call i64 @g_strlcpy(ptr noundef %19, ptr noundef %20, i64 noundef 30)
  %22 = call ptr @wmem_file_scope()
  %23 = load ptr, ptr %7, align 8
  %24 = load i32, ptr @lte_rlc_pseudo_hdr.proto_rlc_lte, align 4
  %25 = call ptr @p_get_proto_data(ptr noundef %22, ptr noundef %23, i32 noundef %24, i32 noundef 0)
  store ptr %25, ptr %10, align 8
  %26 = load ptr, ptr %10, align 8
  %27 = icmp ne ptr %26, null
  br i1 %27, label %28, label %29

28:                                               ; preds = %18
  store i1 true, ptr %5, align 1
  store i32 1, ptr %13, align 4
  br label %139

29:                                               ; preds = %18
  %30 = load ptr, ptr %7, align 8
  %31 = getelementptr inbounds nuw %struct._packet_info, ptr %30, i32 0, i32 51
  %32 = load ptr, ptr %31, align 8
  %33 = call noalias ptr @wmem_alloc0(ptr noundef %32, i64 noundef 20) #11
  store ptr %33, ptr %10, align 8
  %34 = getelementptr inbounds [30 x i8], ptr %12, i64 0, i64 0
  %35 = call ptr @strtok(ptr noundef %34, ptr noundef @.str.172) #9
  store ptr %35, ptr %11, align 8
  %36 = load ptr, ptr %11, align 8
  %37 = icmp eq ptr %36, null
  br i1 %37, label %38, label %39

38:                                               ; preds = %29
  store i1 false, ptr %5, align 1
  store i32 1, ptr %13, align 4
  br label %139

39:                                               ; preds = %29
  %40 = load ptr, ptr %11, align 8
  %41 = call i32 @strcmp(ptr noundef %40, ptr noundef @.str.181) #10
  %42 = icmp eq i32 %41, 0
  br i1 %42, label %43, label %46

43:                                               ; preds = %39
  %44 = load ptr, ptr %10, align 8
  %45 = getelementptr inbounds nuw %struct.rlc_lte_info, ptr %44, i32 0, i32 5
  store i16 4, ptr %45, align 2
  br label %55

46:                                               ; preds = %39
  %47 = load ptr, ptr %11, align 8
  %48 = call i32 @strcmp(ptr noundef %47, ptr noundef @.str.182) #10
  %49 = icmp eq i32 %48, 0
  br i1 %49, label %50, label %53

50:                                               ; preds = %46
  %51 = load ptr, ptr %10, align 8
  %52 = getelementptr inbounds nuw %struct.rlc_lte_info, ptr %51, i32 0, i32 5
  store i16 5, ptr %52, align 2
  br label %54

53:                                               ; preds = %46
  store i1 false, ptr %5, align 1
  store i32 1, ptr %13, align 4
  br label %139

54:                                               ; preds = %50
  br label %55

55:                                               ; preds = %54, %43
  %56 = call ptr @strtok(ptr noundef null, ptr noundef @.str.172) #9
  store ptr %56, ptr %11, align 8
  %57 = load ptr, ptr %11, align 8
  %58 = icmp eq ptr %57, null
  br i1 %58, label %59, label %60

59:                                               ; preds = %55
  store i1 false, ptr %5, align 1
  store i32 1, ptr %13, align 4
  br label %139

60:                                               ; preds = %55
  %61 = load ptr, ptr %11, align 8
  %62 = load ptr, ptr %10, align 8
  %63 = getelementptr inbounds nuw %struct.rlc_lte_info, ptr %62, i32 0, i32 6
  %64 = call zeroext i1 @ws_strtou16(ptr noundef %61, ptr noundef null, ptr noundef %63)
  %65 = call ptr @strtok(ptr noundef null, ptr noundef @.str.172) #9
  store ptr %65, ptr %11, align 8
  %66 = load ptr, ptr %11, align 8
  %67 = icmp eq ptr %66, null
  br i1 %67, label %68, label %69

68:                                               ; preds = %60
  store i1 false, ptr %5, align 1
  store i32 1, ptr %13, align 4
  br label %139

69:                                               ; preds = %60
  %70 = load ptr, ptr %11, align 8
  %71 = call i32 @strcmp(ptr noundef %70, ptr noundef @.str.185) #10
  %72 = icmp eq i32 %71, 0
  br i1 %72, label %73, label %76

73:                                               ; preds = %69
  %74 = load ptr, ptr %10, align 8
  %75 = getelementptr inbounds nuw %struct.rlc_lte_info, ptr %74, i32 0, i32 0
  store i8 1, ptr %75, align 4
  br label %101

76:                                               ; preds = %69
  %77 = load ptr, ptr %11, align 8
  %78 = call i32 @strcmp(ptr noundef %77, ptr noundef @.str.186) #10
  %79 = icmp eq i32 %78, 0
  br i1 %79, label %80, label %83

80:                                               ; preds = %76
  %81 = load ptr, ptr %10, align 8
  %82 = getelementptr inbounds nuw %struct.rlc_lte_info, ptr %81, i32 0, i32 0
  store i8 2, ptr %82, align 4
  br label %100

83:                                               ; preds = %76
  %84 = load ptr, ptr %11, align 8
  %85 = call i32 @strcmp(ptr noundef %84, ptr noundef @.str.187) #10
  %86 = icmp eq i32 %85, 0
  br i1 %86, label %87, label %90

87:                                               ; preds = %83
  %88 = load ptr, ptr %10, align 8
  %89 = getelementptr inbounds nuw %struct.rlc_lte_info, ptr %88, i32 0, i32 0
  store i8 4, ptr %89, align 4
  br label %99

90:                                               ; preds = %83
  %91 = load ptr, ptr %11, align 8
  %92 = call i32 @strcmp(ptr noundef %91, ptr noundef @.str.188) #10
  %93 = icmp eq i32 %92, 0
  br i1 %93, label %94, label %97

94:                                               ; preds = %90
  %95 = load ptr, ptr %10, align 8
  %96 = getelementptr inbounds nuw %struct.rlc_lte_info, ptr %95, i32 0, i32 0
  store i8 8, ptr %96, align 4
  br label %98

97:                                               ; preds = %90
  store i1 false, ptr %5, align 1
  store i32 1, ptr %13, align 4
  br label %139

98:                                               ; preds = %94
  br label %99

99:                                               ; preds = %98, %87
  br label %100

100:                                              ; preds = %99, %80
  br label %101

101:                                              ; preds = %100, %73
  %102 = call ptr @strtok(ptr noundef null, ptr noundef @.str.172) #9
  store ptr %102, ptr %11, align 8
  %103 = load ptr, ptr %11, align 8
  %104 = icmp ne ptr %103, null
  br i1 %104, label %105, label %121

105:                                              ; preds = %101
  %106 = load ptr, ptr %11, align 8
  %107 = call i32 @strcmp(ptr noundef %106, ptr noundef @.str.189) #10
  %108 = icmp eq i32 %107, 0
  br i1 %108, label %109, label %112

109:                                              ; preds = %105
  %110 = load ptr, ptr %10, align 8
  %111 = getelementptr inbounds nuw %struct.rlc_lte_info, ptr %110, i32 0, i32 3
  store i8 5, ptr %111, align 1
  br label %120

112:                                              ; preds = %105
  %113 = load ptr, ptr %11, align 8
  %114 = call i32 @strcmp(ptr noundef %113, ptr noundef @.str.190) #10
  %115 = icmp eq i32 %114, 0
  br i1 %115, label %116, label %119

116:                                              ; preds = %112
  %117 = load ptr, ptr %10, align 8
  %118 = getelementptr inbounds nuw %struct.rlc_lte_info, ptr %117, i32 0, i32 3
  store i8 10, ptr %118, align 1
  br label %119

119:                                              ; preds = %116, %112
  br label %120

120:                                              ; preds = %119, %109
  br label %121

121:                                              ; preds = %120, %101
  %122 = load i32, ptr %9, align 4
  %123 = icmp eq i32 %122, 0
  %124 = select i1 %123, i32 0, i32 1
  %125 = trunc i32 %124 to i8
  %126 = load ptr, ptr %10, align 8
  %127 = getelementptr inbounds nuw %struct.rlc_lte_info, ptr %126, i32 0, i32 1
  store i8 %125, ptr %127, align 1
  %128 = load ptr, ptr %10, align 8
  %129 = getelementptr inbounds nuw %struct.rlc_lte_info, ptr %128, i32 0, i32 2
  store i8 0, ptr %129, align 2
  %130 = load ptr, ptr %10, align 8
  %131 = getelementptr inbounds nuw %struct.rlc_lte_info, ptr %130, i32 0, i32 4
  store i16 0, ptr %131, align 4
  %132 = load i16, ptr %8, align 2
  %133 = load ptr, ptr %10, align 8
  %134 = getelementptr inbounds nuw %struct.rlc_lte_info, ptr %133, i32 0, i32 7
  store i16 %132, ptr %134, align 2
  %135 = call ptr @wmem_file_scope()
  %136 = load ptr, ptr %7, align 8
  %137 = load i32, ptr @lte_rlc_pseudo_hdr.proto_rlc_lte, align 4
  %138 = load ptr, ptr %10, align 8
  call void @p_add_proto_data(ptr noundef %135, ptr noundef %136, i32 noundef %137, i32 noundef 0, ptr noundef %138)
  store i1 true, ptr %5, align 1
  store i32 1, ptr %13, align 4
  br label %139

139:                                              ; preds = %121, %97, %68, %59, %53, %38, %28
  call void @llvm.lifetime.end.p0(i64 30, ptr %12) #9
  call void @llvm.lifetime.end.p0(i64 8, ptr %11) #9
  call void @llvm.lifetime.end.p0(i64 8, ptr %10) #9
  %140 = load i1, ptr %5, align 1
  ret i1 %140
}