; Function Attrs: null_pointer_is_valid sspstrong uwtable
define internal noundef zeroext i1 @lte_rlc_pseudo_hdr(ptr noundef %0, ptr noundef %1, i16 noundef zeroext %2, i32 noundef %3) #0 {
  %5 = alloca [30 x i8], align 16
  call void @llvm.lifetime.start.p0(i64 30, ptr nonnull %5) #7
  %6 = load i32, ptr @lte_rlc_pseudo_hdr.proto_rlc_lte, align 4
  %7 = icmp eq i32 %6, 0
  br i1 %7, label %8, label %10

8:                                                ; preds = %4
  %9 = tail call i32 @proto_get_id_by_filter_name(ptr noundef nonnull @.str.69)
  store i32 %9, ptr @lte_rlc_pseudo_hdr.proto_rlc_lte, align 4
  br label %10

10:                                               ; preds = %8, %4
  %11 = call i64 @g_strlcpy(ptr noundef nonnull %5, ptr noundef %0, i64 noundef 30)
  %12 = call ptr @wmem_file_scope()
  %13 = load i32, ptr @lte_rlc_pseudo_hdr.proto_rlc_lte, align 4
  %14 = call ptr @p_get_proto_data(ptr noundef %12, ptr noundef %1, i32 noundef %13, i32 noundef 0)
  %.not = icmp eq ptr %14, null
  br i1 %.not, label %15, label %.tail49.thread

15:                                               ; preds = %10
  %16 = getelementptr inbounds nuw i8, ptr %1, i64 408
  %17 = load ptr, ptr %16, align 8
  %18 = call noalias dereferenceable_or_null(20) ptr @wmem_alloc0(ptr noundef %17, i64 noundef 20) #8
  %19 = call ptr @strtok(ptr noundef nonnull %5, ptr noundef nonnull @.str.172) #7
  %20 = icmp eq ptr %19, null
  br i1 %20, label %.tail49.thread, label %21

21:                                               ; preds = %15
  %22 = call i32 @strcmp(ptr noundef nonnull dereferenceable(1) %19, ptr noundef nonnull dereferenceable(4) @.str.181) #6
  %23 = icmp eq i32 %22, 0
  br i1 %23, label %27, label %24

24:                                               ; preds = %21
  %25 = call i32 @strcmp(ptr noundef nonnull dereferenceable(1) %19, ptr noundef nonnull dereferenceable(4) @.str.182) #6
  %26 = icmp eq i32 %25, 0
  br i1 %26, label %27, label %.tail49.thread

27:                                               ; preds = %24, %21
  %.sink = phi i16 [ 4, %21 ], [ 5, %24 ]
  %28 = getelementptr inbounds nuw i8, ptr %18, i64 6
  store i16 %.sink, ptr %28, align 2
  %29 = call ptr @strtok(ptr noundef null, ptr noundef nonnull @.str.172) #7
  %30 = icmp eq ptr %29, null
  br i1 %30, label %.tail49.thread, label %31

31:                                               ; preds = %27
  %32 = getelementptr inbounds nuw i8, ptr %18, i64 8
  %33 = call zeroext i1 @ws_strtou16(ptr noundef nonnull %29, ptr noundef null, ptr noundef nonnull %32)
  %34 = call ptr @strtok(ptr noundef null, ptr noundef nonnull @.str.172) #7
  %35 = icmp eq ptr %34, null
  br i1 %35, label %.tail49.thread, label %sub_0

sub_0:                                            ; preds = %31
  %36 = load i8, ptr %34, align 1
  switch i8 %36, label %.tail49.thread [
    i8 84, label %sub_1
    i8 85, label %sub_141
    i8 65, label %sub_146
    i8 78, label %sub_151
  ]

sub_1:                                            ; preds = %sub_0
  %37 = getelementptr inbounds nuw i8, ptr %34, i64 1
  %38 = load i8, ptr %37, align 1
  %.not55 = icmp eq i8 %38, 77
  br i1 %.not55, label %.tail, label %.tail49.thread

.tail:                                            ; preds = %sub_1
  %39 = getelementptr inbounds nuw i8, ptr %34, i64 2
  %40 = load i8, ptr %39, align 1
  %41 = icmp eq i8 %40, 0
  br i1 %41, label %57, label %.tail49.thread

sub_141:                                          ; preds = %sub_0
  %42 = getelementptr inbounds nuw i8, ptr %34, i64 1
  %43 = load i8, ptr %42, align 1
  %.not57 = icmp eq i8 %43, 77
  br i1 %.not57, label %.tail39, label %.tail49.thread

.tail39:                                          ; preds = %sub_141
  %44 = getelementptr inbounds nuw i8, ptr %34, i64 2
  %45 = load i8, ptr %44, align 1
  %46 = icmp eq i8 %45, 0
  br i1 %46, label %57, label %.tail49.thread

sub_146:                                          ; preds = %sub_0
  %47 = getelementptr inbounds nuw i8, ptr %34, i64 1
  %48 = load i8, ptr %47, align 1
  %.not59 = icmp eq i8 %48, 77
  br i1 %.not59, label %.tail44, label %.tail49.thread

.tail44:                                          ; preds = %sub_146
  %49 = getelementptr inbounds nuw i8, ptr %34, i64 2
  %50 = load i8, ptr %49, align 1
  %51 = icmp eq i8 %50, 0
  br i1 %51, label %57, label %.tail49.thread

sub_151:                                          ; preds = %sub_0
  %52 = getelementptr inbounds nuw i8, ptr %34, i64 1
  %53 = load i8, ptr %52, align 1
  %.not61 = icmp eq i8 %53, 65
  br i1 %.not61, label %.tail49, label %.tail49.thread

.tail49:                                          ; preds = %sub_151
  %54 = getelementptr inbounds nuw i8, ptr %34, i64 2
  %55 = load i8, ptr %54, align 1
  %56 = icmp eq i8 %55, 0
  br i1 %56, label %57, label %.tail49.thread

57:                                               ; preds = %.tail49, %.tail44, %.tail39, %.tail
  %.sink72 = phi i8 [ 1, %.tail ], [ 2, %.tail39 ], [ 4, %.tail44 ], [ 8, %.tail49 ]
  store i8 %.sink72, ptr %18, align 4
  %58 = call ptr @strtok(ptr noundef null, ptr noundef nonnull @.str.172) #7
  %.not38 = icmp eq ptr %58, null
  br i1 %.not38, label %66, label %59

59:                                               ; preds = %57
  %60 = call i32 @strcmp(ptr noundef nonnull dereferenceable(1) %58, ptr noundef nonnull dereferenceable(6) @.str.189) #6
  %61 = icmp eq i32 %60, 0
  br i1 %61, label %.sink.split, label %62

62:                                               ; preds = %59
  %63 = call i32 @strcmp(ptr noundef nonnull dereferenceable(1) %58, ptr noundef nonnull dereferenceable(7) @.str.190) #6
  %64 = icmp eq i32 %63, 0
  br i1 %64, label %.sink.split, label %66

.sink.split:                                      ; preds = %62, %59
  %.sink73 = phi i8 [ 5, %59 ], [ 10, %62 ]
  %65 = getelementptr inbounds nuw i8, ptr %18, i64 3
  store i8 %.sink73, ptr %65, align 1
  br label %66

66:                                               ; preds = %.sink.split, %62, %57
  %67 = icmp ne i32 %3, 0
  %68 = zext i1 %67 to i8
  %69 = getelementptr inbounds nuw i8, ptr %18, i64 1
  store i8 %68, ptr %69, align 1
  %70 = getelementptr inbounds nuw i8, ptr %18, i64 2
  store i8 0, ptr %70, align 2
  %71 = getelementptr inbounds nuw i8, ptr %18, i64 4
  store i16 0, ptr %71, align 4
  %72 = getelementptr inbounds nuw i8, ptr %18, i64 10
  store i16 %2, ptr %72, align 2
  %73 = call ptr @wmem_file_scope()
  %74 = load i32, ptr @lte_rlc_pseudo_hdr.proto_rlc_lte, align 4
  call void @p_add_proto_data(ptr noundef %73, ptr noundef %1, i32 noundef %74, i32 noundef 0, ptr noundef %18)
  br label %.tail49.thread

.tail49.thread:                                   ; preds = %sub_0, %.tail, %sub_1, %sub_141, %.tail39, %sub_146, %.tail44, %sub_151, %.tail49, %31, %27, %24, %15, %10, %66
  %.0 = phi i1 [ true, %66 ], [ true, %10 ], [ false, %15 ], [ false, %24 ], [ false, %27 ], [ false, %31 ], [ false, %.tail49 ], [ false, %sub_151 ], [ false, %.tail44 ], [ false, %sub_146 ], [ false, %.tail39 ], [ false, %sub_141 ], [ false, %sub_1 ], [ false, %.tail ], [ false, %sub_0 ]
  call void @llvm.lifetime.end.p0(i64 30, ptr nonnull %5) #7
  ret i1 %.0
}